; ModuleID = 'source-C-CXX/56/2933.c'
source_filename = "source-C-CXX/56/2933.c"
target datalayout = "e-m:e-p270:32:32-p271:32:32-p272:64:64-i64:64-f80:128-n8:16:32:64-S128"
target triple = "x86_64-pc-linux-gnu"

@.str = private unnamed_addr constant [3 x i8] c"%d\00", align 1

; Function Attrs: nounwind sspstrong uwtable
define dso_local void @main() local_unnamed_addr #0 {
  %1 = alloca i32, align 4
  %2 = alloca [50 x [100 x i8]], align 16
  %3 = bitcast i32* %1 to i8*
  call void @llvm.lifetime.start.p0i8(i64 4, i8* nonnull %3) #7
  %4 = getelementptr inbounds [50 x [100 x i8]], [50 x [100 x i8]]* %2, i64 0, i64 0, i64 0
  call void @llvm.lifetime.start.p0i8(i64 5000, i8* nonnull %4) #7
  %5 = call i32 (i8*, ...) @__isoc99_scanf(i8* getelementptr inbounds ([3 x i8], [3 x i8]* @.str, i64 0, i64 0), i32* nonnull %1)
  %6 = load i32, i32* %1, align 4, !tbaa !5
  %7 = icmp slt i32 %6, 0
  br i1 %7, label %89, label %10

8:                                                ; preds = %10
  %9 = icmp slt i32 %15, 0
  br i1 %9, label %89, label %18

10:                                               ; preds = %0, %10
  %11 = phi i64 [ %14, %10 ], [ 0, %0 ]
  %12 = getelementptr inbounds [50 x [100 x i8]], [50 x [100 x i8]]* %2, i64 0, i64 %11, i64 0
  %13 = call i32 (i8*, ...) bitcast (i32 (...)* @gets to i32 (i8*, ...)*)(i8* nonnull %12) #7
  %14 = add nuw nsw i64 %11, 1
  %15 = load i32, i32* %1, align 4, !tbaa !5
  %16 = sext i32 %15 to i64
  %17 = icmp slt i64 %11, %16
  br i1 %17, label %10, label %8, !llvm.loop !9

18:                                               ; preds = %8, %84
  %19 = phi i64 [ %85, %84 ], [ 0, %8 ]
  %20 = getelementptr inbounds [50 x [100 x i8]], [50 x [100 x i8]]* %2, i64 0, i64 %19, i64 0
  %21 = call i64 @strlen(i8* noundef nonnull %20) #8
  %22 = trunc i64 %21 to i32
  %23 = shl i64 %21, 32
  %24 = add i64 %23, -4294967296
  %25 = ashr exact i64 %24, 32
  %26 = getelementptr inbounds [50 x [100 x i8]], [50 x [100 x i8]]* %2, i64 0, i64 %19, i64 %25
  %27 = load i8, i8* %26, align 1, !tbaa !11
  switch i8 %27, label %82 [
    i8 114, label %28
    i8 121, label %34
    i8 103, label %55
  ]

28:                                               ; preds = %18
  %29 = add i64 %23, -8589934592
  %30 = ashr exact i64 %29, 32
  %31 = getelementptr inbounds [50 x [100 x i8]], [50 x [100 x i8]]* %2, i64 0, i64 %19, i64 %30
  %32 = load i8, i8* %31, align 1, !tbaa !11
  %33 = icmp eq i8 %32, 101
  br i1 %33, label %40, label %82

34:                                               ; preds = %18
  %35 = add i64 %23, -8589934592
  %36 = ashr exact i64 %35, 32
  %37 = getelementptr inbounds [50 x [100 x i8]], [50 x [100 x i8]]* %2, i64 0, i64 %19, i64 %36
  %38 = load i8, i8* %37, align 1, !tbaa !11
  %39 = icmp eq i8 %38, 108
  br i1 %39, label %40, label %82

40:                                               ; preds = %34, %28
  %41 = icmp sgt i32 %22, 2
  br i1 %41, label %42, label %53

42:                                               ; preds = %40
  %43 = add i64 %21, 4294967294
  %44 = and i64 %43, 4294967295
  br label %45

45:                                               ; preds = %42, %45
  %46 = phi i64 [ 0, %42 ], [ %51, %45 ]
  %47 = getelementptr inbounds [50 x [100 x i8]], [50 x [100 x i8]]* %2, i64 0, i64 %19, i64 %46
  %48 = load i8, i8* %47, align 1, !tbaa !11
  %49 = sext i8 %48 to i32
  %50 = call i32 @putchar(i32 %49)
  %51 = add nuw nsw i64 %46, 1
  %52 = icmp eq i64 %51, %44
  br i1 %52, label %53, label %45, !llvm.loop !12

53:                                               ; preds = %45, %40
  %54 = call i32 @putchar(i32 10)
  br label %84

55:                                               ; preds = %18
  %56 = add i64 %23, -8589934592
  %57 = ashr exact i64 %56, 32
  %58 = getelementptr inbounds [50 x [100 x i8]], [50 x [100 x i8]]* %2, i64 0, i64 %19, i64 %57
  %59 = load i8, i8* %58, align 1, !tbaa !11
  %60 = icmp eq i8 %59, 110
  br i1 %60, label %61, label %82

61:                                               ; preds = %55
  %62 = shl i64 %21, 32
  %63 = add i64 %62, -12884901888
  %64 = ashr exact i64 %63, 32
  %65 = getelementptr inbounds [50 x [100 x i8]], [50 x [100 x i8]]* %2, i64 0, i64 %19, i64 %64
  %66 = load i8, i8* %65, align 1, !tbaa !11
  %67 = icmp eq i8 %66, 105
  br i1 %67, label %68, label %82

68:                                               ; preds = %61
  %69 = icmp sgt i32 %22, 3
  br i1 %69, label %70, label %80

70:                                               ; preds = %68
  %71 = call i64 @llvm.smax.i64(i64 %64, i64 1)
  br label %72

72:                                               ; preds = %70, %72
  %73 = phi i64 [ 0, %70 ], [ %78, %72 ]
  %74 = getelementptr inbounds [50 x [100 x i8]], [50 x [100 x i8]]* %2, i64 0, i64 %19, i64 %73
  %75 = load i8, i8* %74, align 1, !tbaa !11
  %76 = sext i8 %75 to i32
  %77 = call i32 @putchar(i32 %76)
  %78 = add nuw nsw i64 %73, 1
  %79 = icmp eq i64 %78, %71
  br i1 %79, label %80, label %72, !llvm.loop !13

80:                                               ; preds = %72, %68
  %81 = call i32 @putchar(i32 10)
  br label %84

82:                                               ; preds = %18, %28, %34, %61, %55
  %83 = call i32 @puts(i8* nonnull %20)
  br label %84

84:                                               ; preds = %53, %82, %80
  %85 = add nuw nsw i64 %19, 1
  %86 = load i32, i32* %1, align 4, !tbaa !5
  %87 = sext i32 %86 to i64
  %88 = icmp slt i64 %19, %87
  br i1 %88, label %18, label %89, !llvm.loop !14

89:                                               ; preds = %84, %0, %8
  call void @llvm.lifetime.end.p0i8(i64 5000, i8* nonnull %4) #7
  call void @llvm.lifetime.end.p0i8(i64 4, i8* nonnull %3) #7
  ret void
}

; Function Attrs: argmemonly mustprogress nofree nosync nounwind willreturn
declare void @llvm.lifetime.start.p0i8(i64 immarg, i8* nocapture) #1

; Function Attrs: nofree nounwind
declare noundef i32 @__isoc99_scanf(i8* nocapture noundef readonly, ...) local_unnamed_addr #2

declare i32 @gets(...) local_unnamed_addr #3

; Function Attrs: argmemonly mustprogress nofree nounwind readonly willreturn
declare i64 @strlen(i8* nocapture) local_unnamed_addr #4

; Function Attrs: nofree nounwind
declare noundef i32 @puts(i8* nocapture noundef readonly) local_unnamed_addr #2

; Function Attrs: argmemonly mustprogress nofree nosync nounwind willreturn
declare void @llvm.lifetime.end.p0i8(i64 immarg, i8* nocapture) #1

; Function Attrs: nofree nounwind
declare noundef i32 @putchar(i32 noundef) local_unnamed_addr #5

; Function Attrs: nofree nosync nounwind readnone speculatable willreturn
declare i64 @llvm.smax.i64(i64, i64) #6


!llvm.module.flags = !{!0, !1, !2, !3}
!llvm.ident = !{!4}

!0 = !{i32 1, !"wchar_size", i32 4}
!1 = !{i32 7, !"PIC Level", i32 2}
!2 = !{i32 7, !"PIE Level", i32 2}
!3 = !{i32 7, !"uwtable", i32 1}
!4 = !{!"clang version 13.0.0"}
!5 = !{!6, !6, i64 0}
!6 = !{!"int", !7, i64 0}
!7 = !{!"omnipotent char", !8, i64 0}
!8 = !{!"Simple C/C++ TBAA"}
!9 = distinct !{!9, !10}
!10 = !{!"llvm.loop.mustprogress"}
!11 = !{!7, !7, i64 0}
!12 = distinct !{!12, !10}
!13 = distinct !{!13, !10}
!14 = distinct !{!14, !10}
